target datalayout = "e-m:e-p270:32:32-p271:32:32-p272:64:64-i64:64-i128:128-f80:128-n8:16:32:64-S128"
target triple = "x86_64-pc-linux-gnu"

%struct.ma_vfs_callbacks = type { ptr, ptr, ptr, ptr, ptr, ptr, ptr, ptr }

; Function Attrs: nounwind uwtable
define hidden i32 @ma_vfs_read(ptr noundef %0, ptr noundef %1, ptr noundef %2, i64 noundef %3, ptr noundef %4) #0 {
  %6 = alloca i32, align 4
  %7 = alloca ptr, align 8
  %8 = alloca ptr, align 8
  %9 = alloca ptr, align 8
  %10 = alloca i64, align 8
  %11 = alloca ptr, align 8
  %12 = alloca ptr, align 8
  %13 = alloca i32, align 4
  %14 = alloca i64, align 8
  %15 = alloca i32, align 4
  store ptr %0, ptr %7, align 8
  store ptr %1, ptr %8, align 8
  store ptr %2, ptr %9, align 8
  store i64 %3, ptr %10, align 8
  store ptr %4, ptr %11, align 8
  call void @llvm.lifetime.start.p0(i64 8, ptr %12) #21
  %16 = load ptr, ptr %7, align 8
  store ptr %16, ptr %12, align 8
  call void @llvm.lifetime.start.p0(i64 4, ptr %13) #21
  call void @llvm.lifetime.start.p0(i64 8, ptr %14) #21
  store i64 0, ptr %14, align 8
  %17 = load ptr, ptr %11, align 8
  %18 = icmp ne ptr %17, null
  br i1 %18, label %19, label %21

19:                                               ; preds = %5
  %20 = load ptr, ptr %11, align 8
  store i64 0, ptr %20, align 8
  br label %21

21:                                               ; preds = %19, %5
  %22 = load ptr, ptr %7, align 8
  %23 = icmp eq ptr %22, null
  br i1 %23, label %30, label %24

24:                                               ; preds = %21
  %25 = load ptr, ptr %8, align 8
  %26 = icmp eq ptr %25, null
  br i1 %26, label %30, label %27

27:                                               ; preds = %24
  %28 = load ptr, ptr %9, align 8
  %29 = icmp eq ptr %28, null
  br i1 %29, label %30, label %31

30:                                               ; preds = %27, %24, %21
  store i32 -2, ptr %6, align 4
  store i32 1, ptr %15, align 4
  br label %63

31:                                               ; preds = %27
  %32 = load ptr, ptr %12, align 8
  %33 = getelementptr inbounds nuw %struct.ma_vfs_callbacks, ptr %32, i32 0, i32 3
  %34 = load ptr, ptr %33, align 8
  %35 = icmp eq ptr %34, null
  br i1 %35, label %36, label %37

36:                                               ; preds = %31
  store i32 -29, ptr %6, align 4
  store i32 1, ptr %15, align 4
  br label %63

37:                                               ; preds = %31
  %38 = load ptr, ptr %12, align 8
  %39 = getelementptr inbounds nuw %struct.ma_vfs_callbacks, ptr %38, i32 0, i32 3
  %40 = load ptr, ptr %39, align 8
  %41 = load ptr, ptr %7, align 8
  %42 = load ptr, ptr %8, align 8
  %43 = load ptr, ptr %9, align 8
  %44 = load i64, ptr %10, align 8
  %45 = call i32 %40(ptr noundef %41, ptr noundef %42, ptr noundef %43, i64 noundef %44, ptr noundef %14)
  store i32 %45, ptr %13, align 4
  %46 = load ptr, ptr %11, align 8
  %47 = icmp ne ptr %46, null
  br i1 %47, label %48, label %51

48:                                               ; preds = %37
  %49 = load i64, ptr %14, align 8
  %50 = load ptr, ptr %11, align 8
  store i64 %49, ptr %50, align 8
  br label %51

51:                                               ; preds = %48, %37
  %52 = load i32, ptr %13, align 4
  %53 = icmp eq i32 %52, 0
  br i1 %53, label %54, label %61

54:                                               ; preds = %51
  %55 = load i64, ptr %14, align 8
  %56 = icmp eq i64 %55, 0
  br i1 %56, label %57, label %61

57:                                               ; preds = %54
  %58 = load i64, ptr %10, align 8
  %59 = icmp ugt i64 %58, 0
  br i1 %59, label %60, label %61

60:                                               ; preds = %57
  store i32 -17, ptr %13, align 4
  br label %61

61:                                               ; preds = %60, %57, %54, %51
  %62 = load i32, ptr %13, align 4
  store i32 %62, ptr %6, align 4
  store i32 1, ptr %15, align 4
  br label %63

63:                                               ; preds = %61, %36, %30
  call void @llvm.lifetime.end.p0(i64 8, ptr %14) #21
  call void @llvm.lifetime.end.p0(i64 4, ptr %13) #21
  call void @llvm.lifetime.end.p0(i64 8, ptr %12) #21
  %64 = load i32, ptr %6, align 4
  ret i32 %64
}