; Function Attrs: nounwind uwtable
define hidden i32 @ma_vfs_read(ptr noundef %0, ptr noundef %1, ptr noundef %2, i64 noundef %3, ptr noundef writeonly captures(address_is_null) %4) local_unnamed_addr #7 {
  %6 = alloca i64, align 8
  call void @llvm.lifetime.start.p0(i64 8, ptr nonnull %6) #72
  store i64 0, ptr %6, align 8
  %.not = icmp eq ptr %4, null
  br i1 %.not, label %8, label %7

7:                                                ; preds = %5
  store i64 0, ptr %4, align 8
  br label %8

8:                                                ; preds = %7, %5
  %9 = icmp eq ptr %0, null
  %10 = icmp eq ptr %1, null
  %or.cond = or i1 %9, %10
  %11 = icmp eq ptr %2, null
  %or.cond3 = or i1 %or.cond, %11
  br i1 %or.cond3, label %23, label %12

12:                                               ; preds = %8
  %13 = getelementptr inbounds nuw i8, ptr %0, i64 24
  %14 = load ptr, ptr %13, align 8
  %15 = icmp eq ptr %14, null
  br i1 %15, label %23, label %16

16:                                               ; preds = %12
  %17 = call i32 %14(ptr noundef nonnull %0, ptr noundef nonnull %1, ptr noundef nonnull %2, i64 noundef %3, ptr noundef nonnull %6) #72
  %.pre = load i64, ptr %6, align 8
  br i1 %.not, label %19, label %18

18:                                               ; preds = %16
  store i64 %.pre, ptr %4, align 8
  br label %19

19:                                               ; preds = %18, %16
  %20 = icmp eq i32 %17, 0
  %21 = icmp eq i64 %.pre, 0
  %or.cond5 = select i1 %20, i1 %21, i1 false
  %22 = icmp ne i64 %3, 0
  %or.cond7 = and i1 %22, %or.cond5
  %spec.store.select = select i1 %or.cond7, i32 -17, i32 %17
  br label %23

23:                                               ; preds = %12, %8, %19
  %.0 = phi i32 [ %spec.store.select, %19 ], [ -2, %8 ], [ -29, %12 ]
  call void @llvm.lifetime.end.p0(i64 8, ptr nonnull %6) #72
  ret i32 %.0
}